; Function Attrs: mustprogress nounwind uwtable
define internal void @_ZNSt23_Sp_counted_ptr_inplaceIN8facebook5velox9functions12_GLOBAL__N_113JsonExtractorESaIvELN9__gnu_cxx12_Lock_policyE2EE10_M_disposeEv(ptr nocapture noundef nonnull readonly align 8 dereferenceable(40) %this) unnamed_addr #0 align 2 personality ptr @__gxx_personality_v0 {
entry:
  %_M_impl.i = getelementptr inbounds i8, ptr %this, i64 16
  %0 = load ptr, ptr %_M_impl.i, align 8
  %_M_finish.i.i.i.i = getelementptr inbounds i8, ptr %this, i64 24
  %1 = load ptr, ptr %_M_finish.i.i.i.i, align 8
  %cmp.not3.i.i.i.i.i.i.i = icmp eq ptr %0, %1
  br i1 %cmp.not3.i.i.i.i.i.i.i, label %invoke.cont.i.i.i.i, label %for.body.i.i.i.i.i.i.i

for.body.i.i.i.i.i.i.i:                           ; preds = %entry, %for.body.i.i.i.i.i.i.i
  %__first.addr.04.i.i.i.i.i.i.i = phi ptr [ %incdec.ptr.i.i.i.i.i.i.i, %for.body.i.i.i.i.i.i.i ], [ %0, %entry ]
  tail call void @_ZNSt7__cxx1112basic_stringIcSt11char_traitsIcESaIcEED1Ev(ptr noundef nonnull align 8 dereferenceable(32) %__first.addr.04.i.i.i.i.i.i.i) #1
  %incdec.ptr.i.i.i.i.i.i.i = getelementptr inbounds i8, ptr %__first.addr.04.i.i.i.i.i.i.i, i64 32
  %cmp.not.i.i.i.i.i.i.i = icmp eq ptr %incdec.ptr.i.i.i.i.i.i.i, %1
  br i1 %cmp.not.i.i.i.i.i.i.i, label %invoke.contthread-pre-split.i.i.i.i, label %for.body.i.i.i.i.i.i.i, !llvm.loop !20

invoke.contthread-pre-split.i.i.i.i:              ; preds = %for.body.i.i.i.i.i.i.i
  %.pr.i.i.i.i = load ptr, ptr %_M_impl.i, align 8
  br label %invoke.cont.i.i.i.i

invoke.cont.i.i.i.i:                              ; preds = %invoke.contthread-pre-split.i.i.i.i, %entry
  %2 = phi ptr [ %.pr.i.i.i.i, %invoke.contthread-pre-split.i.i.i.i ], [ %0, %entry ]
  %tobool.not.i.i.i.i.i.i = icmp eq ptr %2, null
  br i1 %tobool.not.i.i.i.i.i.i, label %_ZNSt16allocator_traitsISaIvEE7destroyIN8facebook5velox9functions12_GLOBAL__N_113JsonExtractorEEEvRS0_PT_.exit, label %if.then.i.i.i.i.i.i

if.then.i.i.i.i.i.i:                              ; preds = %invoke.cont.i.i.i.i
  tail call void @_ZdlPv(ptr noundef nonnull %2) #23
  br label %_ZNSt16allocator_traitsISaIvEE7destroyIN8facebook5velox9functions12_GLOBAL__N_113JsonExtractorEEEvRS0_PT_.exit

_ZNSt16allocator_traitsISaIvEE7destroyIN8facebook5velox9functions12_GLOBAL__N_113JsonExtractorEEEvRS0_PT_.exit: ; preds = %invoke.cont.i.i.i.i, %if.then.i.i.i.i.i.i
  ret void
}